ccopy_reg
_reconstructor
p0
(ccharacter
Character
p1
c__builtin__
object
p2
Ntp3
Rp4
(dp5
S'attack_speed'
p6
I1
sS'abilities'
p7
(dp8
sS'_Sprite__g'
p9
(dp10
sS'image'
p11
NsS'damage'
p12
I1
sS'death_timer'
p13
I5
sS'health'
p14
I3
sS'attack_range'
p15
I15
sS'speed'
p16
I4
sS'rect'
p17
cpygame
__rect_constructor
p18
(I-64
I-64
I128
I128
tp19
Rp20
sb.